target datalayout = "e-m:e-p270:32:32-p271:32:32-p272:64:64-i64:64-i128:128-f80:128-n8:16:32:64-S128"
target triple = "x86_64-pc-linux-gnu"

; Function Attrs: mustprogress uwtable
define noundef ptr @_Z24coco_string_create_upperPKw(ptr noundef %0) #1 {
  %2 = alloca ptr, align 8
  %3 = alloca ptr, align 8
  %4 = alloca i32, align 4
  %5 = alloca ptr, align 8
  %6 = alloca i32, align 4
  store ptr %0, ptr %3, align 8
  %7 = load ptr, ptr %3, align 8
  %8 = icmp ne ptr %7, null
  br i1 %8, label %10, label %9

9:                                                ; preds = %1
  store ptr null, ptr %2, align 8
  br label %75

10:                                               ; preds = %1
  store i32 0, ptr %4, align 4
  %11 = load ptr, ptr %3, align 8
  %12 = icmp ne ptr %11, null
  br i1 %12, label %13, label %17

13:                                               ; preds = %10
  %14 = load ptr, ptr %3, align 8
  %15 = call i64 @wcslen(ptr noundef %14) #16
  %16 = trunc i64 %15 to i32
  store i32 %16, ptr %4, align 4
  br label %17

17:                                               ; preds = %13, %10
  %18 = load i32, ptr %4, align 4
  %19 = add nsw i32 %18, 1
  %20 = sext i32 %19 to i64
  %21 = call { i64, i1 } @llvm.umul.with.overflow.i64(i64 %20, i64 4)
  %22 = extractvalue { i64, i1 } %21, 1
  %23 = extractvalue { i64, i1 } %21, 0
  %24 = select i1 %22, i64 -1, i64 %23
  %25 = call noalias noundef nonnull ptr @_Znam(i64 noundef %24) #14
  store ptr %25, ptr %5, align 8
  store i32 0, ptr %6, align 4
  br label %26

26:                                               ; preds = %66, %17
  %27 = load i32, ptr %6, align 4
  %28 = load i32, ptr %4, align 4
  %29 = icmp sle i32 %27, %28
  br i1 %29, label %30, label %69

30:                                               ; preds = %26
  %31 = load ptr, ptr %3, align 8
  %32 = load i32, ptr %6, align 4
  %33 = sext i32 %32 to i64
  %34 = getelementptr inbounds i32, ptr %31, i64 %33
  %35 = load i32, ptr %34, align 4
  %36 = icmp sle i32 97, %35
  br i1 %36, label %37, label %55

37:                                               ; preds = %30
  %38 = load ptr, ptr %3, align 8
  %39 = load i32, ptr %6, align 4
  %40 = sext i32 %39 to i64
  %41 = getelementptr inbounds i32, ptr %38, i64 %40
  %42 = load i32, ptr %41, align 4
  %43 = icmp sle i32 %42, 122
  br i1 %43, label %44, label %55

44:                                               ; preds = %37
  %45 = load ptr, ptr %3, align 8
  %46 = load i32, ptr %6, align 4
  %47 = sext i32 %46 to i64
  %48 = getelementptr inbounds i32, ptr %45, i64 %47
  %49 = load i32, ptr %48, align 4
  %50 = add nsw i32 %49, -32
  %51 = load ptr, ptr %5, align 8
  %52 = load i32, ptr %6, align 4
  %53 = sext i32 %52 to i64
  %54 = getelementptr inbounds i32, ptr %51, i64 %53
  store i32 %50, ptr %54, align 4
  br label %65

55:                                               ; preds = %37, %30
  %56 = load ptr, ptr %3, align 8
  %57 = load i32, ptr %6, align 4
  %58 = sext i32 %57 to i64
  %59 = getelementptr inbounds i32, ptr %56, i64 %58
  %60 = load i32, ptr %59, align 4
  %61 = load ptr, ptr %5, align 8
  %62 = load i32, ptr %6, align 4
  %63 = sext i32 %62 to i64
  %64 = getelementptr inbounds i32, ptr %61, i64 %63
  store i32 %60, ptr %64, align 4
  br label %65

65:                                               ; preds = %55, %44
  br label %66

66:                                               ; preds = %65
  %67 = load i32, ptr %6, align 4
  %68 = add nsw i32 %67, 1
  store i32 %68, ptr %6, align 4
  br label %26, !llvm.loop !9

69:                                               ; preds = %26
  %70 = load ptr, ptr %5, align 8
  %71 = load i32, ptr %4, align 4
  %72 = sext i32 %71 to i64
  %73 = getelementptr inbounds i32, ptr %70, i64 %72
  store i32 0, ptr %73, align 4
  %74 = load ptr, ptr %5, align 8
  store ptr %74, ptr %2, align 8
  br label %75

75:                                               ; preds = %69, %9
  %76 = load ptr, ptr %2, align 8
  ret ptr %76
}