; Function Attrs: mustprogress uwtable
define noalias noundef ptr @_Z24coco_string_create_upperPKw(ptr noundef readonly %0) local_unnamed_addr #2 {
  %.not = icmp eq ptr %0, null
  br i1 %.not, label %17, label %2

2:                                                ; preds = %1
  %3 = tail call i64 @wcslen(ptr noundef nonnull %0) #24
  %4 = shl i64 %3, 32
  %sext = add i64 %4, 4294967296
  %5 = ashr exact i64 %sext, 30
  %.inv = icmp sgt i64 %sext, -1
  %6 = select i1 %.inv, i64 %5, i64 -1
  %7 = tail call noalias noundef nonnull ptr @_Znam(i64 noundef %6) #21
  %8 = and i64 %3, 2147483648
  %.not2628.not = icmp eq i64 %8, 0
  br i1 %.not2628.not, label %.lr.ph.preheader, label %._crit_edge

.lr.ph.preheader:                                 ; preds = %2
  %9 = add nuw nsw i64 %3, 1
  %wide.trip.count = and i64 %9, 4294967295
  br label %.lr.ph

.lr.ph:                                           ; preds = %.lr.ph.preheader, %.lr.ph
  %indvars.iv = phi i64 [ 0, %.lr.ph.preheader ], [ %indvars.iv.next, %.lr.ph ]
  %10 = getelementptr inbounds i32, ptr %0, i64 %indvars.iv
  %11 = load i32, ptr %10, align 4
  %12 = add i32 %11, -97
  %or.cond = icmp ult i32 %12, 26
  %13 = add nsw i32 %11, -32
  %spec.select = select i1 %or.cond, i32 %13, i32 %11
  %14 = getelementptr inbounds i32, ptr %7, i64 %indvars.iv
  store i32 %spec.select, ptr %14, align 4
  %indvars.iv.next = add nuw nsw i64 %indvars.iv, 1
  %exitcond.not = icmp eq i64 %indvars.iv.next, %wide.trip.count
  br i1 %exitcond.not, label %._crit_edge, label %.lr.ph, !llvm.loop !9

._crit_edge:                                      ; preds = %.lr.ph, %2
  %15 = ashr exact i64 %4, 32
  %16 = getelementptr inbounds i32, ptr %7, i64 %15
  store i32 0, ptr %16, align 4
  br label %17

17:                                               ; preds = %1, %._crit_edge
  %.022 = phi ptr [ %7, %._crit_edge ], [ null, %1 ]
  ret ptr %.022
}